target datalayout = "e-m:e-p270:32:32-p271:32:32-p272:64:64-i64:64-i128:128-f80:128-n8:16:32:64-S128"
target triple = "x86_64-unknown-linux-gnu"

%"class.boost::detail::shared_count" = type { ptr }
%"class.boost::shared_ptr.16" = type { ptr, %"class.boost::detail::shared_count" }
%"class.QuantLib::(anonymous namespace)::Integrand" = type { %"class.boost::shared_ptr.16", double, double, double }

@.str.14 = private unnamed_addr constant [8 x i8] c"px != 0\00", align 1
@.str.15 = private unnamed_addr constant [102 x i8] c"generated/home/dtcxzyw/WorkSpace/SDK/vcpkg/installed/x64-linux/include/boost/smart_ptr/shared_ptr.hpp\00", align 1
@__PRETTY_FUNCTION__._ZNK5boost10shared_ptrIN8QuantLib6PayoffEEdeEv = private unnamed_addr constant [126 x i8] c"typename boost::detail::sp_dereference<T>::type boost::shared_ptr<QuantLib::Payoff>::operator*() const [T = QuantLib::Payoff]\00", align 1

; Function Attrs: mustprogress uwtable
define linkonce_odr noundef nonnull align 8 dereferenceable(8) ptr @_ZNK5boost10shared_ptrIN8QuantLib6PayoffEEdeEv(ptr noundef nonnull align 8 dereferenceable(16) %this) #3 comdat align 2 {
entry:
  %this.addr = alloca ptr, align 8
  store ptr %this, ptr %this.addr, align 8, !tbaa !3
  %this1 = load ptr, ptr %this.addr, align 8
  %px = getelementptr inbounds nuw %"class.boost::shared_ptr.16", ptr %this1, i32 0, i32 0
  %0 = load ptr, ptr %px, align 8, !tbaa !56
  %cmp = icmp ne ptr %0, null
  %lnot = xor i1 %cmp, true
  %lnot2 = xor i1 %lnot, true
  %conv = zext i1 %lnot2 to i64
  %expval = call i64 @llvm.expect.i64(i64 %conv, i64 1)
  %tobool = icmp ne i64 %expval, 0
  br i1 %tobool, label %cond.true, label %cond.false

cond.true:                                        ; preds = %entry
  br label %cond.end

cond.false:                                       ; preds = %entry
  call void @_ZN5boost16assertion_failedEPKcS1_S1_l(ptr noundef @.str.14, ptr noundef @__PRETTY_FUNCTION__._ZNK5boost10shared_ptrIN8QuantLib6PayoffEEdeEv, ptr noundef @.str.15, i64 noundef 778)
  br label %cond.end

cond.end:                                         ; preds = %cond.false, %cond.true
  %px3 = getelementptr inbounds nuw %"class.boost::shared_ptr.16", ptr %this1, i32 0, i32 0
  %1 = load ptr, ptr %px3, align 8, !tbaa !56
  ret ptr %1
}

; Function Attrs: mustprogress uwtable
define internal noundef double @_ZNK8QuantLib12_GLOBAL__N_19IntegrandclEd(ptr noundef nonnull align 8 dereferenceable(40) %this, double noundef %x) #3 align 2 {
entry:
  %this.addr = alloca ptr, align 8
  %x.addr = alloca double, align 8
  %temp = alloca double, align 8
  %result = alloca double, align 8
  store ptr %this, ptr %this.addr, align 8, !tbaa !3
  store double %x, ptr %x.addr, align 8, !tbaa !18
  %this1 = load ptr, ptr %this.addr, align 8
  call void @llvm.lifetime.start.p0(i64 8, ptr %temp) #13
  %s0_ = getelementptr inbounds nuw %"class.QuantLib::(anonymous namespace)::Integrand", ptr %this1, i32 0, i32 1
  %0 = load double, ptr %s0_, align 8, !tbaa !60
  %1 = load double, ptr %x.addr, align 8, !tbaa !18
  %call = call double @exp(double noundef %1) #13, !tbaa !20
  %mul = fmul double %0, %call
  store double %mul, ptr %temp, align 8, !tbaa !18
  call void @llvm.lifetime.start.p0(i64 8, ptr %result) #13
  %payoff_ = getelementptr inbounds nuw %"class.QuantLib::(anonymous namespace)::Integrand", ptr %this1, i32 0, i32 0
  %call2 = call noundef nonnull align 8 dereferenceable(8) ptr @_ZNK5boost10shared_ptrIN8QuantLib6PayoffEEdeEv(ptr noundef nonnull align 8 dereferenceable(16) %payoff_)
  %2 = load double, ptr %temp, align 8, !tbaa !18
  %vtable = load ptr, ptr %call2, align 8, !tbaa !12
  %vfn = getelementptr inbounds ptr, ptr %vtable, i64 4
  %3 = load ptr, ptr %vfn, align 8
  %call3 = call noundef double %3(ptr noundef nonnull align 8 dereferenceable(8) %call2, double noundef %2)
  store double %call3, ptr %result, align 8, !tbaa !18
  %4 = load double, ptr %result, align 8, !tbaa !18
  %5 = load double, ptr %x.addr, align 8, !tbaa !18
  %drift_ = getelementptr inbounds nuw %"class.QuantLib::(anonymous namespace)::Integrand", ptr %this1, i32 0, i32 2
  %6 = load double, ptr %drift_, align 8, !tbaa !62
  %sub = fsub double %5, %6
  %fneg = fneg double %sub
  %7 = load double, ptr %x.addr, align 8, !tbaa !18
  %drift_4 = getelementptr inbounds nuw %"class.QuantLib::(anonymous namespace)::Integrand", ptr %this1, i32 0, i32 2
  %8 = load double, ptr %drift_4, align 8, !tbaa !62
  %sub5 = fsub double %7, %8
  %mul6 = fmul double %fneg, %sub5
  %variance_ = getelementptr inbounds nuw %"class.QuantLib::(anonymous namespace)::Integrand", ptr %this1, i32 0, i32 3
  %9 = load double, ptr %variance_, align 8, !tbaa !63
  %mul7 = fmul double 2.000000e+00, %9
  %div = fdiv double %mul6, %mul7
  %call8 = call double @exp(double noundef %div) #13, !tbaa !20
  %mul9 = fmul double %4, %call8
  call void @llvm.lifetime.end.p0(i64 8, ptr %result) #13
  call void @llvm.lifetime.end.p0(i64 8, ptr %temp) #13
  ret double %mul9
}

; Function Attrs: mustprogress nounwind uwtable
define linkonce_odr noundef ptr @_ZNKSt9_Any_data9_M_accessEv(ptr noundef nonnull align 8 dereferenceable(16) %this) #2 comdat align 2 {
entry:
  %this.addr = alloca ptr, align 8
  store ptr %this, ptr %this.addr, align 8, !tbaa !3
  %this1 = load ptr, ptr %this.addr, align 8
  %arrayidx = getelementptr inbounds [16 x i8], ptr %this1, i64 0, i64 0
  ret ptr %arrayidx
}

; Function Attrs: mustprogress uwtable
define internal noundef double @_ZSt13__invoke_implIdRN8QuantLib12_GLOBAL__N_19IntegrandEJdEET_St14__invoke_otherOT0_DpOT1_(ptr noundef nonnull align 8 dereferenceable(40) %__f, ptr noundef nonnull align 8 dereferenceable(8) %__args) #3 {
entry:
  %__f.addr = alloca ptr, align 8
  %__args.addr = alloca ptr, align 8
  store ptr %__f, ptr %__f.addr, align 8, !tbaa !3
  store ptr %__args, ptr %__args.addr, align 8, !tbaa !3
  %0 = load ptr, ptr %__f.addr, align 8, !tbaa !3
  %1 = load ptr, ptr %__args.addr, align 8, !tbaa !3
  %2 = load double, ptr %1, align 8, !tbaa !18
  %call = call noundef double @_ZNK8QuantLib12_GLOBAL__N_19IntegrandclEd(ptr noundef nonnull align 8 dereferenceable(40) %0, double noundef %2)
  ret double %call
}

; Function Attrs: mustprogress nounwind uwtable
define internal noundef nonnull align 8 dereferenceable(8) ptr @_ZNKSt9_Any_data9_M_accessIPN8QuantLib12_GLOBAL__N_19IntegrandEEERKT_v(ptr noundef nonnull align 8 dereferenceable(16) %this) #2 align 2 {
entry:
  %this.addr = alloca ptr, align 8
  store ptr %this, ptr %this.addr, align 8, !tbaa !3
  %this1 = load ptr, ptr %this.addr, align 8
  %call = call noundef ptr @_ZNKSt9_Any_data9_M_accessEv(ptr noundef nonnull align 8 dereferenceable(16) %this1) #13
  ret ptr %call
}

; Function Attrs: mustprogress uwtable
define internal noundef double @_ZSt10__invoke_rIdRN8QuantLib12_GLOBAL__N_19IntegrandEJdEENSt9enable_ifIX16is_invocable_r_vIT_T0_DpT1_EES5_E4typeEOS6_DpOS7_(ptr noundef nonnull align 8 dereferenceable(40) %__fn, ptr noundef nonnull align 8 dereferenceable(8) %__args) #3 {
entry:
  %__fn.addr = alloca ptr, align 8
  %__args.addr = alloca ptr, align 8
  store ptr %__fn, ptr %__fn.addr, align 8, !tbaa !3
  store ptr %__args, ptr %__args.addr, align 8, !tbaa !3
  %0 = load ptr, ptr %__fn.addr, align 8, !tbaa !3
  %1 = load ptr, ptr %__args.addr, align 8, !tbaa !3
  %call = call noundef double @_ZSt13__invoke_implIdRN8QuantLib12_GLOBAL__N_19IntegrandEJdEET_St14__invoke_otherOT0_DpOT1_(ptr noundef nonnull align 8 dereferenceable(40) %0, ptr noundef nonnull align 8 dereferenceable(8) %1)
  ret double %call
}

; Function Attrs: mustprogress nounwind uwtable
define internal noundef ptr @_ZNSt14_Function_base13_Base_managerIN8QuantLib12_GLOBAL__N_19IntegrandEE14_M_get_pointerERKSt9_Any_data(ptr noundef nonnull align 8 dereferenceable(16) %__source) #2 align 2 {
entry:
  %__source.addr = alloca ptr, align 8
  store ptr %__source, ptr %__source.addr, align 8, !tbaa !3
  %0 = load ptr, ptr %__source.addr, align 8, !tbaa !3
  %call = call noundef nonnull align 8 dereferenceable(8) ptr @_ZNKSt9_Any_data9_M_accessIPN8QuantLib12_GLOBAL__N_19IntegrandEEERKT_v(ptr noundef nonnull align 8 dereferenceable(16) %0) #13
  %1 = load ptr, ptr %call, align 8, !tbaa !3
  ret ptr %1
}

; Function Attrs: mustprogress uwtable
define internal noundef double @_ZNSt17_Function_handlerIFddEN8QuantLib12_GLOBAL__N_19IntegrandEE9_M_invokeERKSt9_Any_dataOd(ptr noundef nonnull align 8 dereferenceable(16) %__functor, ptr noundef nonnull align 8 dereferenceable(8) %__args) #3 align 2 {
entry:
  %__functor.addr = alloca ptr, align 8
  %__args.addr = alloca ptr, align 8
  store ptr %__functor, ptr %__functor.addr, align 8, !tbaa !3
  store ptr %__args, ptr %__args.addr, align 8, !tbaa !3
  %0 = load ptr, ptr %__functor.addr, align 8, !tbaa !3
  %call = call noundef ptr @_ZNSt14_Function_base13_Base_managerIN8QuantLib12_GLOBAL__N_19IntegrandEE14_M_get_pointerERKSt9_Any_data(ptr noundef nonnull align 8 dereferenceable(16) %0) #13
  %1 = load ptr, ptr %__args.addr, align 8, !tbaa !3
  %call1 = call noundef double @_ZSt10__invoke_rIdRN8QuantLib12_GLOBAL__N_19IntegrandEJdEENSt9enable_ifIX16is_invocable_r_vIT_T0_DpT1_EES5_E4typeEOS6_DpOS7_(ptr noundef nonnull align 8 dereferenceable(40) %call, ptr noundef nonnull align 8 dereferenceable(8) %1)
  ret double %call1
}