; Function Attrs: mustprogress uwtable
define internal noundef double @_ZNSt17_Function_handlerIFddEN8QuantLib12_GLOBAL__N_19IntegrandEE9_M_invokeERKSt9_Any_dataOd(ptr nocapture noundef nonnull readonly align 8 dereferenceable(16) %__functor, ptr nocapture noundef nonnull readonly align 8 dereferenceable(8) %__args) #9 align 2 {
entry:
  %__functor.val = load ptr, ptr %__functor, align 8, !tbaa !3
  %__args.val = load double, ptr %__args, align 8, !tbaa !122
  %s0_.i.i.i = getelementptr inbounds nuw i8, ptr %__functor.val, i64 16
  %0 = load double, ptr %s0_.i.i.i, align 8, !tbaa !123
  %call.i.i.i = tail call double @exp(double noundef %__args.val) #26, !tbaa !73
  %1 = load ptr, ptr %__functor.val, align 8, !tbaa !59
  %cmp.not.i.i.i.i = icmp eq ptr %1, null
  br i1 %cmp.not.i.i.i.i, label %cond.false.i.i.i.i, label %_ZSt10__invoke_rIdRN8QuantLib12_GLOBAL__N_19IntegrandEJdEENSt9enable_ifIX16is_invocable_r_vIT_T0_DpT1_EES5_E4typeEOS6_DpOS7_.exit, !prof !48

cond.false.i.i.i.i:                               ; preds = %entry
  tail call void @_ZN5boost16assertion_failedEPKcS1_S1_l(ptr noundef nonnull @.str.14, ptr noundef nonnull @__PRETTY_FUNCTION__._ZNK5boost10shared_ptrIN8QuantLib6PayoffEEdeEv, ptr noundef nonnull @.str.15, i64 noundef 778)
  %.pre.i.i.i.i = load ptr, ptr %__functor.val, align 8, !tbaa !59
  br label %_ZSt10__invoke_rIdRN8QuantLib12_GLOBAL__N_19IntegrandEJdEENSt9enable_ifIX16is_invocable_r_vIT_T0_DpT1_EES5_E4typeEOS6_DpOS7_.exit

_ZSt10__invoke_rIdRN8QuantLib12_GLOBAL__N_19IntegrandEJdEENSt9enable_ifIX16is_invocable_r_vIT_T0_DpT1_EES5_E4typeEOS6_DpOS7_.exit: ; preds = %entry, %cond.false.i.i.i.i
  %2 = phi ptr [ %1, %entry ], [ %.pre.i.i.i.i, %cond.false.i.i.i.i ]
  %mul.i.i.i = fmul double %0, %call.i.i.i
  %vtable.i.i.i = load ptr, ptr %2, align 8, !tbaa !35
  %vfn.i.i.i = getelementptr inbounds i8, ptr %vtable.i.i.i, i64 32
  %3 = load ptr, ptr %vfn.i.i.i, align 8
  %call3.i.i.i = tail call noundef double %3(ptr noundef nonnull align 8 dereferenceable(8) %2, double noundef %mul.i.i.i)
  %drift_.i.i.i = getelementptr inbounds nuw i8, ptr %__functor.val, i64 24
  %4 = load double, ptr %drift_.i.i.i, align 8, !tbaa !125
  %sub.i.i.i = fsub double %__args.val, %4
  %fneg.i.i.i = fneg double %sub.i.i.i
  %mul6.i.i.i = fmul double %sub.i.i.i, %fneg.i.i.i
  %variance_.i.i.i = getelementptr inbounds nuw i8, ptr %__functor.val, i64 32
  %5 = load double, ptr %variance_.i.i.i, align 8, !tbaa !126
  %mul7.i.i.i = fmul double %5, 2.000000e+00
  %div.i.i.i = fdiv double %mul6.i.i.i, %mul7.i.i.i
  %call8.i.i.i = tail call double @exp(double noundef %div.i.i.i) #26, !tbaa !73
  %mul9.i.i.i = fmul double %call3.i.i.i, %call8.i.i.i
  ret double %mul9.i.i.i
}